; Function Attrs: nounwind uwtable
define void @Gia_ManCountRanks_rec(ptr noundef readonly captures(none) %0, i32 noundef %1, ptr noundef captures(none) %2, ptr noundef readonly captures(none) %3, ptr noundef readonly captures(none) %4, i32 noundef %5) local_unnamed_addr #0 {
  %7 = getelementptr i8, ptr %0, i64 176
  %8 = getelementptr i8, ptr %0, i64 616
  %.val67 = load i32, ptr %7, align 8
  %.val3868 = load ptr, ptr %8, align 8
  %9 = sext i32 %1 to i64
  %10 = getelementptr inbounds i32, ptr %.val3868, i64 %9
  %11 = load i32, ptr %10, align 4
  %.not69 = icmp eq i32 %11, %.val67
  br i1 %.not69, label %tailrecurse._crit_edge, label %.lr.ph

.lr.ph:                                           ; preds = %6
  %12 = getelementptr i8, ptr %3, i64 8
  %13 = getelementptr i8, ptr %0, i64 32
  br label %21

tailrecurse._crit_edge:                           ; preds = %tailrecurse, %6
  %.lcssa = phi i64 [ %9, %6 ], [ %36, %tailrecurse ]
  %14 = getelementptr i8, ptr %3, i64 8
  %.val45 = load ptr, ptr %14, align 8
  %15 = getelementptr inbounds i32, ptr %.val45, i64 %.lcssa
  %16 = load i32, ptr %15, align 4
  %17 = icmp slt i32 %16, %5
  br i1 %17, label %18, label %Gia_ObjIsPi.exit

18:                                               ; preds = %tailrecurse._crit_edge
  %19 = getelementptr i8, ptr %4, i64 8
  %.val50 = load ptr, ptr %19, align 8
  %20 = getelementptr inbounds i32, ptr %.val50, i64 %.lcssa
  store i32 1, ptr %20, align 4
  br label %Gia_ObjIsPi.exit

21:                                               ; preds = %.lr.ph, %tailrecurse
  %22 = phi ptr [ %10, %.lr.ph ], [ %37, %tailrecurse ]
  %23 = phi i64 [ %9, %.lr.ph ], [ %36, %tailrecurse ]
  %.val71 = phi i32 [ %.val67, %.lr.ph ], [ %.val, %tailrecurse ]
  %.tr6170 = phi i32 [ %1, %.lr.ph ], [ %35, %tailrecurse ]
  store i32 %.val71, ptr %22, align 4
  %.val51 = load ptr, ptr %12, align 8
  %24 = getelementptr inbounds i32, ptr %.val51, i64 %23
  store i32 %5, ptr %24, align 4
  %.val41 = load ptr, ptr %13, align 8
  %25 = getelementptr inbounds %struct.Gia_Obj_t_, ptr %.val41, i64 %23
  %.val46 = load i64, ptr %25, align 4
  %26 = and i64 %.val46, 2147483648
  %.not.i = icmp ne i64 %26, 0
  %27 = and i64 %.val46, 536870911
  %28 = icmp eq i64 %27, 536870911
  %narrow.i.not = or i1 %.not.i, %28
  br i1 %narrow.i.not, label %39, label %tailrecurse

tailrecurse:                                      ; preds = %21
  %29 = trunc i64 %.val46 to i32
  %30 = and i32 %29, 536870911
  %31 = sub nsw i32 %.tr6170, %30
  tail call void @Gia_ManCountRanks_rec(ptr noundef nonnull %0, i32 noundef %31, ptr noundef %2, ptr noundef nonnull %3, ptr noundef %4, i32 noundef %5)
  %.val44 = load i64, ptr %25, align 4
  %32 = lshr i64 %.val44, 32
  %33 = trunc nuw i64 %32 to i32
  %34 = and i32 %33, 536870911
  %35 = sub nsw i32 %.tr6170, %34
  %.val = load i32, ptr %7, align 8
  %.val38 = load ptr, ptr %8, align 8
  %36 = sext i32 %35 to i64
  %37 = getelementptr inbounds i32, ptr %.val38, i64 %36
  %38 = load i32, ptr %37, align 4
  %.not = icmp eq i32 %38, %.val
  br i1 %.not, label %tailrecurse._crit_edge, label %21

39:                                               ; preds = %21
  %40 = and i64 %.val46, 2684354559
  %narrow.i.not.i = icmp eq i64 %40, 2684354559
  br i1 %narrow.i.not.i, label %Gia_ObjIsRo.exit, label %Gia_ObjIsPi.exit

Gia_ObjIsRo.exit:                                 ; preds = %39
  %41 = lshr i64 %.val46, 32
  %42 = trunc nuw i64 %41 to i32
  %43 = and i32 %42, 536870911
  %44 = getelementptr i8, ptr %0, i64 16
  %.val4.i = load i32, ptr %44, align 8
  %45 = getelementptr i8, ptr %0, i64 64
  %.val5.i = load ptr, ptr %45, align 8
  %46 = getelementptr i8, ptr %.val5.i, i64 4
  %.val5.val.i = load i32, ptr %46, align 4
  %47 = sub nsw i32 %.val5.val.i, %.val4.i
  %.not60 = icmp slt i32 %43, %47
  br i1 %.not60, label %Gia_ObjIsPi.exit, label %48

48:                                               ; preds = %Gia_ObjIsRo.exit
  %49 = getelementptr i8, ptr %0, i64 72
  %.val6.i = load ptr, ptr %49, align 8
  %50 = getelementptr i8, ptr %.val6.i, i64 4
  %.val6.val.i = load i32, ptr %50, align 4
  %51 = add i32 %.val6.val.i, %43
  %52 = sub i32 %51, %.val5.val.i
  %53 = getelementptr i8, ptr %.val6.i, i64 8
  %.val5.val.i53 = load ptr, ptr %53, align 8
  %54 = sext i32 %52 to i64
  %55 = getelementptr inbounds i32, ptr %.val5.val.i53, i64 %54
  %56 = load i32, ptr %55, align 4
  %57 = sext i32 %56 to i64
  %58 = getelementptr inbounds %struct.Gia_Obj_t_, ptr %.val41, i64 %57
  %.val.i = load i64, ptr %58, align 4
  %59 = trunc i64 %.val.i to i32
  %60 = and i32 %59, 536870911
  %61 = sub nsw i32 %56, %60
  %62 = getelementptr inbounds nuw i8, ptr %2, i64 4
  %63 = load i32, ptr %62, align 4
  %64 = load i32, ptr %2, align 8
  %65 = icmp eq i32 %63, %64
  br i1 %65, label %66, label %.Vec_IntGrow.exit10_crit_edge.i

.Vec_IntGrow.exit10_crit_edge.i:                  ; preds = %48
  %.phi.trans.insert.i = getelementptr inbounds nuw i8, ptr %2, i64 8
  %.pre.i = load ptr, ptr %.phi.trans.insert.i, align 8
  br label %Vec_IntPush.exit

66:                                               ; preds = %48
  %67 = icmp slt i32 %63, 16
  br i1 %67, label %68, label %76

68:                                               ; preds = %66
  %69 = getelementptr inbounds nuw i8, ptr %2, i64 8
  %70 = load ptr, ptr %69, align 8
  %.not9.i.i = icmp eq ptr %70, null
  br i1 %.not9.i.i, label %73, label %71

71:                                               ; preds = %68
  %72 = tail call dereferenceable_or_null(64) ptr @realloc(ptr noundef nonnull %70, i64 noundef 64) #21
  br label %Vec_IntGrow.exit.i

73:                                               ; preds = %68
  %74 = tail call noalias dereferenceable_or_null(64) ptr @malloc(i64 noundef 64) #22
  br label %Vec_IntGrow.exit.i

Vec_IntGrow.exit.i:                               ; preds = %73, %71
  %75 = phi ptr [ %72, %71 ], [ %74, %73 ]
  store ptr %75, ptr %69, align 8
  store i32 16, ptr %2, align 8
  br label %Vec_IntPush.exit

76:                                               ; preds = %66
  %77 = shl nuw nsw i32 %63, 1
  %78 = getelementptr inbounds nuw i8, ptr %2, i64 8
  %79 = load ptr, ptr %78, align 8
  %.not9.i9.i = icmp eq ptr %79, null
  %80 = zext nneg i32 %77 to i64
  %81 = shl nuw nsw i64 %80, 2
  br i1 %.not9.i9.i, label %84, label %82

82:                                               ; preds = %76
  %83 = tail call ptr @realloc(ptr noundef nonnull %79, i64 noundef %81) #21
  br label %86

84:                                               ; preds = %76
  %85 = tail call noalias ptr @malloc(i64 noundef %81) #22
  br label %86

86:                                               ; preds = %84, %82
  %87 = phi ptr [ %83, %82 ], [ %85, %84 ]
  store ptr %87, ptr %78, align 8
  store i32 %77, ptr %2, align 8
  br label %Vec_IntPush.exit

Vec_IntPush.exit:                                 ; preds = %.Vec_IntGrow.exit10_crit_edge.i, %Vec_IntGrow.exit.i, %86
  %88 = phi ptr [ %.pre.i, %.Vec_IntGrow.exit10_crit_edge.i ], [ %87, %86 ], [ %75, %Vec_IntGrow.exit.i ]
  %89 = load i32, ptr %62, align 4
  %90 = add nsw i32 %89, 1
  store i32 %90, ptr %62, align 4
  %91 = sext i32 %89 to i64
  %92 = getelementptr inbounds i32, ptr %88, i64 %91
  store i32 %61, ptr %92, align 4
  br label %Gia_ObjIsPi.exit

Gia_ObjIsPi.exit:                                 ; preds = %Gia_ObjIsRo.exit, %39, %Vec_IntPush.exit, %tailrecurse._crit_edge, %18
  ret void
}